Certificate:
    Data:
        Version: 3 (0x2)
        Serial Number: 33 (0x21)
        Signature Algorithm: sha1WithRSAEncryption
        Issuer: C=DE, ST=NRW, O=DLR, OU=SC, CN=RCE Dev Certificate Authority/emailAddress=rce-admin@dlr.de
        Validity
            Not Before: Aug 31 21:02:52 2009 GMT
            Not After : Aug 31 21:02:52 2010 GMT
        Subject: C=DE, ST=NRW, L=Cologne, O=DLR, OU=SC, CN=Rainer Hacker/emailAddress=rainer.hacker@rcenvironment.de
        Subject Public Key Info:
            Public Key Algorithm: rsaEncryption
            RSA Public Key: (1024 bit)
                Modulus (1024 bit):
                    00:e8:2a:05:15:52:08:31:a1:b8:51:39:db:63:70:
                    8c:2b:bd:9c:7c:f5:4e:8c:5f:ed:61:35:e6:fa:1a:
                    00:ff:11:d3:29:d9:24:65:eb:d8:88:a9:91:3f:9a:
                    e0:ad:e7:f9:1d:44:33:2e:10:69:cc:ba:6f:10:cb:
                    23:d0:a5:2a:ce:39:36:ca:dc:bc:69:62:f0:52:7c:
                    86:0c:b3:70:ae:6b:d6:32:6f:c5:10:68:dd:b6:1c:
                    63:34:28:6b:4b:d5:a6:1b:39:f4:4e:ee:38:2b:87:
                    72:85:2b:cf:8b:02:2e:60:bf:d3:79:af:9a:38:f5:
                    51:7b:2e:fe:3a:5c:78:d6:93
                Exponent: 65537 (0x10001)
        X509v3 extensions:
            X509v3 Basic Constraints: 
                CA:FALSE
            Netscape Comment: 
                OpenSSL Generated Certificate
            X509v3 Subject Key Identifier: 
                DE:AE:18:38:57:BE:B1:D5:9F:77:33:BA:78:82:B6:43:48:2F:F9:FF
            X509v3 Authority Key Identifier: 
                keyid:85:43:2D:60:D9:E7:89:F4:E4:CC:7D:0E:76:3A:99:09:D9:64:F6:52

    Signature Algorithm: sha1WithRSAEncryption
        9c:d6:4a:4e:f0:07:8d:97:37:09:2f:76:f5:d3:9d:3b:22:50:
        22:de:4c:04:a9:e4:30:bd:82:7b:00:2a:f4:1d:e7:dd:49:17:
        99:b9:74:53:fd:bb:ed:f0:83:c3:4f:8d:9d:64:a2:b1:d0:c3:
        3a:58:bf:1f:50:d8:6a:bf:3a:76:b6:0a:cc:69:67:40:78:b4:
        85:b0:b4:14:ec:93:07:2a:57:61:f7:e7:2c:16:a1:fa:c1:21:
        64:2a:38:9c:39:cb:b4:71:82:0a:f9:91:c9:a0:32:74:c9:f2:
        f7:09:ea:2a:70:cd:ea:07:fa:4c:de:91:00:1d:03:8d:01:da:
        14:1f
-----BEGIN CERTIFICATE-----
MIIDADCCAmmgAwIBAgIBITANBgkqhkiG9w0BAQUFADB/MQswCQYDVQQGEwJERTEM
MAoGA1UECBMDTlJXMQwwCgYDVQQKEwNETFIxCzAJBgNVBAsTAlNDMSYwJAYDVQQD
Ex1SQ0UgRGV2IENlcnRpZmljYXRlIEF1dGhvcml0eTEfMB0GCSqGSIb3DQEJARYQ
cmNlLWFkbWluQGRsci5kZTAeFw0wOTA4MzEyMTAyNTJaFw0xMDA4MzEyMTAyNTJa
MIGPMQswCQYDVQQGEwJERTEMMAoGA1UECBMDTlJXMRAwDgYDVQQHEwdDb2xvZ25l
MQwwCgYDVQQKEwNETFIxCzAJBgNVBAsTAlNDMRYwFAYDVQQDEw1SYWluZXIgSGFj
a2VyMS0wKwYJKoZIhvcNAQkBFh5yYWluZXIuaGFja2VyQHJjZW52aXJvbm1lbnQu
ZGUwgZ8wDQYJKoZIhvcNAQEBBQADgY0AMIGJAoGBAOgqBRVSCDGhuFE522NwjCu9
nHz1Toxf7WE15voaAP8R0ynZJGXr2IipkT+a4K3n+R1EMy4Qacy6bxDLI9ClKs45
NsrcvGli8FJ8hgyzcK5r1jJvxRBo3bYcYzQoa0vVphs59E7uOCuHcoUrz4sCLmC/
03mvmjj1UXsu/jpceNaTAgMBAAGjezB5MAkGA1UdEwQCMAAwLAYJYIZIAYb4QgEN
BB8WHU9wZW5TU0wgR2VuZXJhdGVkIENlcnRpZmljYXRlMB0GA1UdDgQWBBTerhg4
V76x1Z93M7p4grZDSC/5/zAfBgNVHSMEGDAWgBSFQy1g2eeJ9OTMfQ52OpkJ2WT2
UjANBgkqhkiG9w0BAQUFAAOBgQCc1kpO8AeNlzcJL3b10507IlAi3kwEqeQwvYJ7
ACr0HefdSReZuXRT/bvt8IPDT42dZKKx0MM6WL8fUNhqvzp2tgrMaWdAeLSFsLQU
7JMHKldh9+csFqH6wSFkKjicOcu0cYIK+ZHJoDJ0yfL3CeoqcM3qB/pM3pEAHQON
AdoUHw==
-----END CERTIFICATE-----
