Certificate:
    Data:
        Version: 3 (0x2)
        Serial Number: 5 (0x5)
        Signature Algorithm: sha1WithRSAEncryption
        Issuer: C=DE, ST=NRW, O=DLR, OU=SC, CN=RCE Dev Certificate Authority/emailAddress=rce-admin@dlr.de
        Validity
            Not Before: Aug 21 17:59:24 2008 GMT
            Not After : Aug 21 17:59:24 2009 GMT
        Subject: C=DE, ST=NRW, L=Cologne, O=DLR, OU=SC, CN=Rainer Tester
        Subject Public Key Info:
            Public Key Algorithm: rsaEncryption
            RSA Public Key: (1024 bit)
                Modulus (1024 bit):
                    00:be:dc:4e:5c:19:97:6a:24:d3:4d:d1:70:80:8d:
                    aa:11:c0:39:61:f4:99:d7:6a:ee:ac:fd:12:8a:c3:
                    61:27:5a:1c:09:4d:ad:25:b6:4c:ad:8b:b9:6e:34:
                    95:8f:53:75:df:ef:d7:65:66:06:a8:60:87:e0:56:
                    e6:2c:8d:22:74:9c:eb:eb:2a:e4:ce:ca:8b:5a:09:
                    59:fe:54:80:27:ee:3e:33:b8:96:9d:20:6b:44:ec:
                    1d:70:25:72:34:d0:3b:12:80:88:a6:7d:1b:dc:ec:
                    5a:0c:ee:21:93:96:a3:66:f1:78:66:bb:f2:30:f5:
                    84:34:1f:79:b2:48:18:cc:9d
                Exponent: 65537 (0x10001)
        X509v3 extensions:
            X509v3 Basic Constraints: 
                CA:FALSE
            Netscape Comment: 
                OpenSSL Generated Certificate
            X509v3 Subject Key Identifier: 
                60:12:9F:22:13:C8:F5:9A:F5:09:B2:45:FA:24:B8:AE:6E:12:82:93
            X509v3 Authority Key Identifier: 
                keyid:85:43:2D:60:D9:E7:89:F4:E4:CC:7D:0E:76:3A:99:09:D9:64:F6:52

    Signature Algorithm: sha1WithRSAEncryption
        44:18:25:a6:77:90:93:96:8c:5d:95:c5:70:17:bf:e6:83:c6:
        3a:49:82:89:c1:8c:24:ec:0a:35:9d:5c:50:98:ce:b0:f1:a2:
        16:30:d0:7b:19:33:7e:7e:ac:4b:b1:ca:eb:55:6f:73:2a:65:
        2a:a8:e1:92:65:f0:86:50:2d:51:73:0f:6b:56:50:4d:ed:f5:
        91:4a:08:cd:00:6d:7c:92:d7:c6:42:10:15:89:1d:a9:92:6a:
        d9:7d:58:71:f7:bb:c0:5e:eb:8c:ba:3c:b0:02:eb:33:17:9c:
        9a:68:31:54:08:5a:20:6c:75:65:7e:2c:2a:79:49:53:74:42:
        66:a5
-----BEGIN CERTIFICATE-----
MIIC0DCCAjmgAwIBAgIBBTANBgkqhkiG9w0BAQUFADB/MQswCQYDVQQGEwJERTEM
MAoGA1UECBMDTlJXMQwwCgYDVQQKEwNETFIxCzAJBgNVBAsTAlNDMSYwJAYDVQQD
Ex1SQ0UgRGV2IENlcnRpZmljYXRlIEF1dGhvcml0eTEfMB0GCSqGSIb3DQEJARYQ
cmNlLWFkbWluQGRsci5kZTAeFw0wODA4MjExNzU5MjRaFw0wOTA4MjExNzU5MjRa
MGAxCzAJBgNVBAYTAkRFMQwwCgYDVQQIEwNOUlcxEDAOBgNVBAcTB0NvbG9nbmUx
DDAKBgNVBAoTA0RMUjELMAkGA1UECxMCU0MxFjAUBgNVBAMTDVJhaW5lciBUZXN0
ZXIwgZ8wDQYJKoZIhvcNAQEBBQADgY0AMIGJAoGBAL7cTlwZl2ok003RcICNqhHA
OWH0mddq7qz9EorDYSdaHAlNrSW2TK2LuW40lY9Tdd/v12VmBqhgh+BW5iyNInSc
6+sq5M7Ki1oJWf5UgCfuPjO4lp0ga0TsHXAlcjTQOxKAiKZ9G9zsWgzuIZOWo2bx
eGa78jD1hDQfebJIGMydAgMBAAGjezB5MAkGA1UdEwQCMAAwLAYJYIZIAYb4QgEN
BB8WHU9wZW5TU0wgR2VuZXJhdGVkIENlcnRpZmljYXRlMB0GA1UdDgQWBBRgEp8i
E8j1mvUJskX6JLiubhKCkzAfBgNVHSMEGDAWgBSFQy1g2eeJ9OTMfQ52OpkJ2WT2
UjANBgkqhkiG9w0BAQUFAAOBgQBEGCWmd5CTloxdlcVwF7/mg8Y6SYKJwYwk7Ao1
nVxQmM6w8aIWMNB7GTN+fqxLscrrVW9zKmUqqOGSZfCGUC1Rcw9rVlBN7fWRSgjN
AG18ktfGQhAViR2pkmrZfVhx97vAXuuMujywAuszF5yaaDFUCFogbHVlfiwqeUlT
dEJmpQ==
-----END CERTIFICATE-----
