Certificate:
    Data:
        Version: 3 (0x2)
        Serial Number: 35 (0x23)
        Signature Algorithm: sha1WithRSAEncryption
        Issuer: C=DE, ST=NRW, O=DLR, OU=SC, CN=RCE Dev Certificate Authority/emailAddress=rce-admin@dlr.de
        Validity
            Not Before: Oct 10 19:06:58 2010 GMT
            Not After : Oct 10 19:06:58 2011 GMT
        Subject: C=DE, ST=NRW, L=Cologne, O=DLR, CN=Chief Engineer
        Subject Public Key Info:
            Public Key Algorithm: rsaEncryption
            RSA Public Key: (1024 bit)
                Modulus (1024 bit):
                    00:af:b5:46:43:9d:8f:be:c2:85:82:35:5e:4e:d6:
                    5f:44:2a:62:b6:bb:7b:2d:7d:50:07:0d:2a:74:25:
                    df:13:a4:2c:4d:7c:fe:93:cf:a9:97:b4:1b:bd:52:
                    f6:7e:33:13:61:9f:73:27:d7:6d:e8:a2:01:04:a8:
                    c8:c1:62:77:96:81:48:20:aa:a1:e5:84:f6:99:58:
                    10:1f:46:42:a5:39:df:2f:b5:1b:53:e0:a1:dd:0d:
                    e6:9b:66:00:98:11:3d:78:40:f4:94:37:d9:48:68:
                    90:76:54:b4:ef:1d:ec:f6:42:49:c3:ee:d3:15:09:
                    8a:76:a9:34:17:c3:08:44:b5
                Exponent: 65537 (0x10001)
        X509v3 extensions:
            X509v3 Basic Constraints: 
                CA:FALSE
            Netscape Comment: 
                OpenSSL Generated Certificate
            X509v3 Subject Key Identifier: 
                89:8D:15:11:E2:99:DB:44:09:97:13:02:1A:CD:FA:21:4E:59:23:FF
            X509v3 Authority Key Identifier: 
                keyid:85:43:2D:60:D9:E7:89:F4:E4:CC:7D:0E:76:3A:99:09:D9:64:F6:52

    Signature Algorithm: sha1WithRSAEncryption
        7b:71:36:f0:0c:0b:62:b9:31:2a:19:59:20:1c:0e:33:69:df:
        83:7d:34:e3:6d:45:d8:d0:52:11:74:db:ec:60:f3:55:75:72:
        e8:6b:95:5c:c1:e5:bc:76:ce:0a:6c:21:11:ce:5d:34:40:94:
        01:00:96:f3:f3:ca:88:14:c5:0f:67:cd:e3:ac:ea:47:0f:74:
        84:fa:54:91:49:6b:5f:f4:fa:4f:d8:a0:c8:a7:8c:8d:af:51:
        d9:da:cd:5b:59:08:be:58:cc:f4:00:0d:d0:de:84:f7:11:35:
        85:bf:aa:6e:2b:bb:54:e7:0c:3e:cd:e4:16:31:c5:6d:cb:bb:
        bd:47
-----BEGIN CERTIFICATE-----
MIICxDCCAi2gAwIBAgIBIzANBgkqhkiG9w0BAQUFADB/MQswCQYDVQQGEwJERTEM
MAoGA1UECBMDTlJXMQwwCgYDVQQKEwNETFIxCzAJBgNVBAsTAlNDMSYwJAYDVQQD
Ex1SQ0UgRGV2IENlcnRpZmljYXRlIEF1dGhvcml0eTEfMB0GCSqGSIb3DQEJARYQ
cmNlLWFkbWluQGRsci5kZTAeFw0xMDEwMTAxOTA2NThaFw0xMTEwMTAxOTA2NTha
MFQxCzAJBgNVBAYTAkRFMQwwCgYDVQQIEwNOUlcxEDAOBgNVBAcTB0NvbG9nbmUx
DDAKBgNVBAoTA0RMUjEXMBUGA1UEAxMOQ2hpZWYgRW5naW5lZXIwgZ8wDQYJKoZI
hvcNAQEBBQADgY0AMIGJAoGBAK+1RkOdj77ChYI1Xk7WX0QqYra7ey19UAcNKnQl
3xOkLE18/pPPqZe0G71S9n4zE2GfcyfXbeiiAQSoyMFid5aBSCCqoeWE9plYEB9G
QqU53y+1G1Pgod0N5ptmAJgRPXhA9JQ32UhokHZUtO8d7PZCScPu0xUJinapNBfD
CES1AgMBAAGjezB5MAkGA1UdEwQCMAAwLAYJYIZIAYb4QgENBB8WHU9wZW5TU0wg
R2VuZXJhdGVkIENlcnRpZmljYXRlMB0GA1UdDgQWBBSJjRUR4pnbRAmXEwIazfoh
Tlkj/zAfBgNVHSMEGDAWgBSFQy1g2eeJ9OTMfQ52OpkJ2WT2UjANBgkqhkiG9w0B
AQUFAAOBgQB7cTbwDAtiuTEqGVkgHA4zad+DfTTjbUXY0FIRdNvsYPNVdXLoa5Vc
weW8ds4KbCERzl00QJQBAJbz88qIFMUPZ83jrOpHD3SE+lSRSWtf9PpP2KDIp4yN
r1HZ2s1bWQi+WMz0AA3Q3oT3ETWFv6puK7tU5ww+zeQWMcVty7u9Rw==
-----END CERTIFICATE-----
