Certificate:
    Data:
        Version: 3 (0x2)
        Serial Number:
            9d:a2:e7:d4:8d:28:9c:c1
        Signature Algorithm: sha1WithRSAEncryption
        Issuer: C=AU, ST=Some-State, O=DLR, CN=RCE Admin
        Validity
            Not Before: Nov 16 19:01:19 2012 GMT
            Not After : Nov 16 19:01:19 2013 GMT
        Subject: C=AU, ST=Some-State, L=Bielefeld, O=Internet Widgits Pty Ltd, CN=RCE Enemy
        Subject Public Key Info:
            Public Key Algorithm: rsaEncryption
            RSA Public Key: (1024 bit)
                Modulus (1024 bit):
                    00:b3:e6:a5:8e:0d:38:a7:89:05:70:ef:b2:19:dc:
                    57:39:ac:51:de:3b:cd:06:33:4d:61:4b:10:62:da:
                    ac:aa:c5:bd:93:b5:d8:4f:dd:aa:4b:7a:0f:e2:17:
                    c6:dd:e3:8d:d5:6c:0d:1e:28:7b:e3:ab:cf:d2:7d:
                    b6:e4:14:29:db:c0:dd:96:92:65:9a:88:4b:9b:8a:
                    25:91:07:6b:b4:18:38:bd:76:a9:db:79:50:ec:6d:
                    65:25:ee:fe:a1:86:bb:e1:3a:36:6d:f5:f0:e2:3b:
                    60:6e:db:5a:e6:f6:10:5f:4d:6e:1a:c7:92:92:79:
                    eb:b4:33:60:cb:fd:de:a3:9b
                Exponent: 65537 (0x10001)
        X509v3 extensions:
            X509v3 Basic Constraints: 
                CA:FALSE
            Netscape Comment: 
                OpenSSL Generated Certificate
            X509v3 Subject Key Identifier: 
                06:81:07:2C:FA:A9:36:5B:0F:93:06:C1:9A:F1:DF:15:80:37:14:D7
            X509v3 Authority Key Identifier: 
                keyid:3C:D9:5B:D3:3E:EF:DF:E9:A3:0B:96:7D:08:A3:30:C0:91:69:65:C0

    Signature Algorithm: sha1WithRSAEncryption
        62:cc:a8:62:4f:5d:a6:f4:8c:29:35:9d:63:52:77:b2:97:00:
        6e:36:c9:20:5d:7e:c2:b3:93:3d:b4:a5:6d:bc:61:8e:ae:72:
        63:69:66:20:60:10:58:77:74:8f:26:eb:67:de:d2:55:02:52:
        52:e9:8d:40:ed:9b:11:09:19:e9:72:56:d1:8b:34:ce:af:86:
        f5:65:cc:e7:92:0e:0c:0d:b6:42:ec:01:0e:85:96:fe:67:d0:
        08:9d:4d:be:4e:92:c9:6e:ec:3d:90:b5:bd:c9:f6:26:7f:c5:
        e1:f8:ea:43:ae:8e:d1:1d:06:3e:15:d1:80:98:dc:78:46:af:
        20:bf
-----BEGIN CERTIFICATE-----
MIICqjCCAhOgAwIBAgIJAJ2i59SNKJzBMA0GCSqGSIb3DQEBBQUAMEQxCzAJBgNV
BAYTAkFVMRMwEQYDVQQIEwpTb21lLVN0YXRlMQwwCgYDVQQKEwNETFIxEjAQBgNV
BAMTCVJDRSBBZG1pbjAeFw0xMjExMTYxOTAxMTlaFw0xMzExMTYxOTAxMTlaMG0x
CzAJBgNVBAYTAkFVMRMwEQYDVQQIEwpTb21lLVN0YXRlMRIwEAYDVQQHEwlCaWVs
ZWZlbGQxITAfBgNVBAoTGEludGVybmV0IFdpZGdpdHMgUHR5IEx0ZDESMBAGA1UE
AxMJUkNFIEVuZW15MIGfMA0GCSqGSIb3DQEBAQUAA4GNADCBiQKBgQCz5qWODTin
iQVw77IZ3Fc5rFHeO80GM01hSxBi2qyqxb2TtdhP3apLeg/iF8bd443VbA0eKHvj
q8/SfbbkFCnbwN2WkmWaiEubiiWRB2u0GDi9dqnbeVDsbWUl7v6hhrvhOjZt9fDi
O2Bu21rm9hBfTW4ax5KSeeu0M2DL/d6jmwIDAQABo3sweTAJBgNVHRMEAjAAMCwG
CWCGSAGG+EIBDQQfFh1PcGVuU1NMIEdlbmVyYXRlZCBDZXJ0aWZpY2F0ZTAdBgNV
HQ4EFgQUBoEHLPqpNlsPkwbBmvHfFYA3FNcwHwYDVR0jBBgwFoAUPNlb0z7v3+mj
C5Z9CKMwwJFpZcAwDQYJKoZIhvcNAQEFBQADgYEAYsyoYk9dpvSMKTWdY1J3spcA
bjbJIF1+wrOTPbSlbbxhjq5yY2lmIGAQWHd0jybrZ97SVQJSUumNQO2bEQkZ6XJW
0Ys0zq+G9WXM55IODA22QuwBDoWW/mfQCJ1Nvk6SyW7sPZC1vcn2Jn/F4fjqQ66O
0R0GPhXRgJjceEavIL8=
-----END CERTIFICATE-----
