Certificate:
    Data:
        Version: 3 (0x2)
        Serial Number:
            9d:a2:e7:d4:8d:28:9c:c0
        Signature Algorithm: sha1WithRSAEncryption
        Issuer: C=AU, ST=Some-State, O=DLR, CN=RCE Admin
        Validity
            Not Before: Nov 16 18:58:33 2012 GMT
            Not After : Nov 16 18:58:33 2013 GMT
        Subject: C=DE, ST=Some-State, L=Cologne, O=DLR, CN=Chief Engineer
        Subject Public Key Info:
            Public Key Algorithm: rsaEncryption
            RSA Public Key: (1024 bit)
                Modulus (1024 bit):
                    00:a9:b5:b2:a7:8a:32:70:63:3c:b2:48:b0:55:30:
                    68:6c:f8:d6:9f:a3:99:5a:45:f8:89:52:eb:cc:58:
                    89:cf:3c:be:5c:93:78:07:ee:4f:56:43:79:d3:fa:
                    b2:f4:17:82:5f:a9:d4:4f:78:b6:0d:78:e2:db:0f:
                    7b:6d:9f:06:d1:30:a7:92:f8:fa:de:38:8c:f1:3c:
                    7a:cf:b2:09:50:f9:1d:2a:a6:09:58:e3:65:b4:8c:
                    c1:63:46:15:c2:f1:f7:b5:51:9f:5e:15:e8:c6:8e:
                    b3:15:fe:29:c9:58:27:1a:5b:65:f7:40:de:a1:8d:
                    7e:58:8d:86:7b:eb:6f:bd:c7
                Exponent: 65537 (0x10001)
        X509v3 extensions:
            X509v3 Basic Constraints: 
                CA:FALSE
            Netscape Comment: 
                OpenSSL Generated Certificate
            X509v3 Subject Key Identifier: 
                D0:31:81:0D:13:61:13:74:D1:FB:77:96:9E:A4:78:2A:36:7E:B6:53
            X509v3 Authority Key Identifier: 
                keyid:3C:D9:5B:D3:3E:EF:DF:E9:A3:0B:96:7D:08:A3:30:C0:91:69:65:C0

    Signature Algorithm: sha1WithRSAEncryption
        65:c5:74:db:a9:bd:8d:a6:1d:74:d9:6d:85:de:d2:76:10:52:
        6b:96:93:06:e7:22:50:63:07:eb:90:e4:af:2d:40:12:46:98:
        3b:fc:3f:48:46:b6:1a:0c:a7:73:6d:a1:a0:fb:33:d9:e9:8c:
        1e:e3:5e:ba:6e:eb:04:bb:3f:c8:4d:b4:eb:dd:b2:da:ce:47:
        79:ee:50:57:00:48:eb:44:47:e9:a3:46:98:31:9a:63:fa:84:
        a2:20:fe:c9:cf:01:16:6a:30:72:cb:50:0c:e5:94:47:c5:60:
        8e:92:d5:25:ee:d1:07:b4:ab:37:e5:36:84:9b:2d:de:54:40:
        80:02
-----BEGIN CERTIFICATE-----
MIICmDCCAgGgAwIBAgIJAJ2i59SNKJzAMA0GCSqGSIb3DQEBBQUAMEQxCzAJBgNV
BAYTAkFVMRMwEQYDVQQIEwpTb21lLVN0YXRlMQwwCgYDVQQKEwNETFIxEjAQBgNV
BAMTCVJDRSBBZG1pbjAeFw0xMjExMTYxODU4MzNaFw0xMzExMTYxODU4MzNaMFsx
CzAJBgNVBAYTAkRFMRMwEQYDVQQIEwpTb21lLVN0YXRlMRAwDgYDVQQHEwdDb2xv
Z25lMQwwCgYDVQQKEwNETFIxFzAVBgNVBAMTDkNoaWVmIEVuZ2luZWVyMIGfMA0G
CSqGSIb3DQEBAQUAA4GNADCBiQKBgQCptbKnijJwYzyySLBVMGhs+Nafo5laRfiJ
UuvMWInPPL5ck3gH7k9WQ3nT+rL0F4JfqdRPeLYNeOLbD3ttnwbRMKeS+PreOIzx
PHrPsglQ+R0qpglY42W0jMFjRhXC8fe1UZ9eFejGjrMV/inJWCcaW2X3QN6hjX5Y
jYZ762+9xwIDAQABo3sweTAJBgNVHRMEAjAAMCwGCWCGSAGG+EIBDQQfFh1PcGVu
U1NMIEdlbmVyYXRlZCBDZXJ0aWZpY2F0ZTAdBgNVHQ4EFgQU0DGBDRNhE3TR+3eW
nqR4KjZ+tlMwHwYDVR0jBBgwFoAUPNlb0z7v3+mjC5Z9CKMwwJFpZcAwDQYJKoZI
hvcNAQEFBQADgYEAZcV026m9jaYddNlthd7SdhBSa5aTBuciUGMH65Dkry1AEkaY
O/w/SEa2Ggync22hoPsz2emMHuNeum7rBLs/yE20692y2s5Hee5QVwBI60RH6aNG
mDGaY/qEoiD+yc8BFmowcstQDOWUR8VgjpLVJe7RB7SrN+U2hJst3lRAgAI=
-----END CERTIFICATE-----
