Certificate:
    Data:
        Version: 3 (0x2)
        Serial Number: 5 (0x5)
        Signature Algorithm: md5WithRSAEncryption
        Issuer: C=DE, ST=DRW, L=COLOGNE, O=DLR, OU=SC, CN=Thijs Metsch/emailAddress=thijs.metsch@dlr.de
        Validity
            Not Before: May  5 11:35:43 2006 GMT
            Not After : May  2 11:35:43 2016 GMT
        Subject: C=DE, ST=NRW, L=COLOGNE, O=DLR, OU=SC-VK, CN=Rainer User
        Subject Public Key Info:
            Public Key Algorithm: rsaEncryption
            RSA Public Key: (1024 bit)
                Modulus (1024 bit):
                    00:ba:3a:6d:b2:f2:a2:59:5e:58:3d:3d:f3:53:7e:
                    36:1d:1b:9e:d5:a3:47:89:fa:9a:a0:aa:d8:7e:65:
                    9b:d9:37:57:3c:91:a1:3f:ea:17:53:b1:df:13:04:
                    70:35:f7:4f:dd:22:df:cb:35:50:df:45:bd:51:2e:
                    83:ae:f6:6a:cb:11:a2:e9:b7:fc:99:35:81:1e:b7:
                    9b:13:af:fd:fe:08:74:7a:50:58:5c:bb:ad:98:26:
                    c8:9e:2b:30:28:47:ef:47:cd:d5:ca:cd:29:b7:77:
                    14:9a:5f:0e:02:de:a4:df:95:a1:b3:11:4a:85:9a:
                    9a:c3:08:f3:10:03:09:7e:17
                Exponent: 65537 (0x10001)
        X509v3 extensions:
            X509v3 Basic Constraints: 
                CA:FALSE
            Netscape Comment: 
                OpenSSL Generated Certificate
            X509v3 Subject Key Identifier: 
                C5:DC:97:E7:9B:81:B1:59:7C:D4:52:3C:24:6C:85:CC:69:B8:C3:DA
            X509v3 Authority Key Identifier: 
                keyid:06:55:6A:FC:89:92:04:46:4B:12:61:8D:75:90:5C:EB:B7:A0:A3:12
                DirName:/C=DE/ST=DRW/L=COLOGNE/O=DLR/OU=SC/CN=Thijs Metsch/emailAddress=thijs.metsch@dlr.de
                serial:00

    Signature Algorithm: md5WithRSAEncryption
        8e:df:c4:b7:7c:e5:38:27:93:8e:41:66:7e:bb:bc:4e:89:8a:
        86:00:6e:02:16:e4:ff:d6:27:f6:52:f8:34:5b:07:83:04:60:
        34:a5:49:3b:9c:42:e8:93:f6:50:df:e0:a8:e3:05:02:17:a9:
        6a:84:09:66:9e:b2:6d:bb:5a:f6:fe:00:8d:93:07:f3:9d:f9:
        e6:ad:ed:e6:06:13:b2:33:81:31:87:29:b3:c6:b1:c3:0d:f1:
        db:18:bc:ef:f1:1c:17:76:3b:47:dc:b0:9b:a9:39:9b:b3:0a:
        45:a0:ce:ae:12:98:1b:88:ca:fb:19:bd:19:62:5d:0e:be:78:
        a1:6a
-----BEGIN CERTIFICATE-----
MIIDbDCCAtWgAwIBAgIBBTANBgkqhkiG9w0BAQQFADCBgzELMAkGA1UEBhMCREUx
DDAKBgNVBAgTA0RSVzEQMA4GA1UEBxMHQ09MT0dORTEMMAoGA1UEChMDRExSMQsw
CQYDVQQLEwJTQzEVMBMGA1UEAxMMVGhpanMgTWV0c2NoMSIwIAYJKoZIhvcNAQkB
FhN0aGlqcy5tZXRzY2hAZGxyLmRlMB4XDTA2MDUwNTExMzU0M1oXDTE2MDUwMjEx
MzU0M1owYTELMAkGA1UEBhMCREUxDDAKBgNVBAgTA05SVzEQMA4GA1UEBxMHQ09M
T0dORTEMMAoGA1UEChMDRExSMQ4wDAYDVQQLEwVTQy1WSzEUMBIGA1UEAxMLUmFp
bmVyIFVzZXIwgZ8wDQYJKoZIhvcNAQEBBQADgY0AMIGJAoGBALo6bbLyolleWD09
81N+Nh0bntWjR4n6mqCq2H5lm9k3VzyRoT/qF1Ox3xMEcDX3T90i38s1UN9FvVEu
g672assRoum3/Jk1gR63mxOv/f4IdHpQWFy7rZgmyJ4rMChH70fN1crNKbd3FJpf
DgLepN+VobMRSoWamsMI8xADCX4XAgMBAAGjggEPMIIBCzAJBgNVHRMEAjAAMCwG
CWCGSAGG+EIBDQQfFh1PcGVuU1NMIEdlbmVyYXRlZCBDZXJ0aWZpY2F0ZTAdBgNV
HQ4EFgQUxdyX55uBsVl81FI8JGyFzGm4w9owgbAGA1UdIwSBqDCBpYAUBlVq/ImS
BEZLEmGNdZBc67egoxKhgYmkgYYwgYMxCzAJBgNVBAYTAkRFMQwwCgYDVQQIEwNE
UlcxEDAOBgNVBAcTB0NPTE9HTkUxDDAKBgNVBAoTA0RMUjELMAkGA1UECxMCU0Mx
FTATBgNVBAMTDFRoaWpzIE1ldHNjaDEiMCAGCSqGSIb3DQEJARYTdGhpanMubWV0
c2NoQGRsci5kZYIBADANBgkqhkiG9w0BAQQFAAOBgQCO38S3fOU4J5OOQWZ+u7xO
iYqGAG4CFuT/1if2Uvg0WweDBGA0pUk7nELok/ZQ3+Co4wUCF6lqhAlmnrJtu1r2
/gCNkwfznfnmre3mBhOyM4ExhymzxrHDDfHbGLzv8RwXdjtH3LCbqTmbswpFoM6u
EpgbiMr7Gb0ZYl0Ovnihag==
-----END CERTIFICATE-----
