Certificate:
    Data:
        Version: 3 (0x2)
        Serial Number:
            9d:a2:e7:d4:8d:28:9c:bf
        Signature Algorithm: sha1WithRSAEncryption
        Issuer: C=AU, ST=Some-State, O=DLR, CN=RCE Admin
        Validity
            Not Before: Nov 16 18:57:43 2012 GMT
            Not After : Nov 16 18:57:43 2015 GMT
        Subject: C=AU, ST=Some-State, O=DLR, CN=RCE Admin
        Subject Public Key Info:
            Public Key Algorithm: rsaEncryption
            RSA Public Key: (1024 bit)
                Modulus (1024 bit):
                    00:c0:a2:d2:57:4e:1d:e0:e2:aa:24:74:4e:76:98:
                    75:a4:11:97:54:fa:39:00:03:45:fc:17:da:4b:93:
                    68:45:99:03:f5:e8:3e:6f:cb:6e:bb:a5:28:ad:ba:
                    01:15:d7:19:a7:f7:2e:77:83:d0:2b:08:84:04:2a:
                    26:db:b1:32:76:39:97:03:6e:16:90:19:5a:12:85:
                    25:9b:86:d6:d5:6c:06:78:d1:4d:95:7b:37:7a:92:
                    28:d9:e5:c9:d2:2b:c2:5d:8d:fe:8c:0f:15:27:57:
                    a3:64:ef:3c:e3:8c:29:83:56:42:24:b6:4e:57:a7:
                    6c:ea:36:94:81:98:7f:35:1d
                Exponent: 65537 (0x10001)
        X509v3 extensions:
            X509v3 Subject Key Identifier: 
                3C:D9:5B:D3:3E:EF:DF:E9:A3:0B:96:7D:08:A3:30:C0:91:69:65:C0
            X509v3 Authority Key Identifier: 
                keyid:3C:D9:5B:D3:3E:EF:DF:E9:A3:0B:96:7D:08:A3:30:C0:91:69:65:C0
                DirName:/C=AU/ST=Some-State/O=DLR/CN=RCE Admin
                serial:9D:A2:E7:D4:8D:28:9C:BF

            X509v3 Basic Constraints: 
                CA:TRUE
    Signature Algorithm: sha1WithRSAEncryption
        14:e0:20:3b:17:04:4e:7b:bd:ad:a3:85:fa:55:6a:04:36:6d:
        af:f2:37:ac:1d:b8:8d:e3:ad:bd:9d:f8:56:78:97:ca:59:d8:
        22:8c:2a:70:2f:f6:0e:1b:58:f4:1b:66:0b:9c:b4:3f:2a:2d:
        90:8b:6b:db:a9:bf:d8:44:8b:3e:79:29:6b:9f:06:93:9e:0f:
        0a:79:c3:11:22:65:e6:09:7a:15:76:31:56:e3:63:88:87:71:
        bf:c3:0c:37:bc:9f:bf:65:b0:cd:86:d2:d9:43:8e:b8:09:93:
        cd:13:89:04:77:bb:8b:ac:2b:4b:94:48:a1:d2:01:99:9f:3e:
        e9:d5
-----BEGIN CERTIFICATE-----
MIICrTCCAhagAwIBAgIJAJ2i59SNKJy/MA0GCSqGSIb3DQEBBQUAMEQxCzAJBgNV
BAYTAkFVMRMwEQYDVQQIEwpTb21lLVN0YXRlMQwwCgYDVQQKEwNETFIxEjAQBgNV
BAMTCVJDRSBBZG1pbjAeFw0xMjExMTYxODU3NDNaFw0xNTExMTYxODU3NDNaMEQx
CzAJBgNVBAYTAkFVMRMwEQYDVQQIEwpTb21lLVN0YXRlMQwwCgYDVQQKEwNETFIx
EjAQBgNVBAMTCVJDRSBBZG1pbjCBnzANBgkqhkiG9w0BAQEFAAOBjQAwgYkCgYEA
wKLSV04d4OKqJHROdph1pBGXVPo5AANF/BfaS5NoRZkD9eg+b8tuu6UorboBFdcZ
p/cud4PQKwiEBCom27EydjmXA24WkBlaEoUlm4bW1WwGeNFNlXs3epIo2eXJ0ivC
XY3+jA8VJ1ejZO8844wpg1ZCJLZOV6ds6jaUgZh/NR0CAwEAAaOBpjCBozAdBgNV
HQ4EFgQUPNlb0z7v3+mjC5Z9CKMwwJFpZcAwdAYDVR0jBG0wa4AUPNlb0z7v3+mj
C5Z9CKMwwJFpZcChSKRGMEQxCzAJBgNVBAYTAkFVMRMwEQYDVQQIEwpTb21lLVN0
YXRlMQwwCgYDVQQKEwNETFIxEjAQBgNVBAMTCVJDRSBBZG1pboIJAJ2i59SNKJy/
MAwGA1UdEwQFMAMBAf8wDQYJKoZIhvcNAQEFBQADgYEAFOAgOxcETnu9raOF+lVq
BDZtr/I3rB24jeOtvZ34VniXylnYIowqcC/2DhtY9BtmC5y0PyotkItr26m/2ESL
Pnkpa58Gk54PCnnDESJl5gl6FXYxVuNjiIdxv8MMN7yfv2WwzYbS2UOOuAmTzROJ
BHe7i6wrS5RIodIBmZ8+6dU=
-----END CERTIFICATE-----
